target datalayout = "e-m:e-p270:32:32-p271:32:32-p272:64:64-i64:64-i128:128-f80:128-n8:16:32:64-S128"
target triple = "x86_64-pc-linux-gnu"

%"struct.duckdb_miniz::mz_zip_archive" = type { i64, i64, i32, i32, i32, i32, i64, ptr, ptr, ptr, ptr, ptr, ptr, ptr, ptr, ptr }
%"struct.duckdb_miniz::mz_zip_internal_state_tag" = type { %"struct.duckdb_miniz::mz_zip_array", %"struct.duckdb_miniz::mz_zip_array", %"struct.duckdb_miniz::mz_zip_array", i32, i32, i32, ptr, i64, ptr, i64, i64 }
%"struct.duckdb_miniz::mz_zip_array" = type { ptr, i64, i64, i32 }

; Function Attrs: alwaysinline mustprogress nounwind uwtable
define internal noundef i32 @_ZN12duckdb_minizL24mz_zip_array_range_checkEPKNS_12mz_zip_arrayEj(ptr noundef %0, i32 noundef %1) #8 {
  %3 = alloca ptr, align 8
  %4 = alloca i32, align 4
  store ptr %0, ptr %3, align 8, !tbaa !19
  store i32 %1, ptr %4, align 4, !tbaa !10
  %5 = load i32, ptr %4, align 4, !tbaa !10
  ret i32 %5
}

; Function Attrs: alwaysinline mustprogress nounwind uwtable
define internal noundef i32 @_ZN12duckdb_minizL16mz_zip_set_errorEPNS_14mz_zip_archiveENS_12mz_zip_errorE(ptr noundef %0, i32 noundef %1) #8 {
  %3 = alloca ptr, align 8
  %4 = alloca i32, align 4
  store ptr %0, ptr %3, align 8, !tbaa !19
  store i32 %1, ptr %4, align 4, !tbaa !242
  %5 = load ptr, ptr %3, align 8, !tbaa !19
  %6 = icmp ne ptr %5, null
  br i1 %6, label %7, label %11

7:                                                ; preds = %2
  %8 = load i32, ptr %4, align 4, !tbaa !242
  %9 = load ptr, ptr %3, align 8, !tbaa !19
  %10 = getelementptr inbounds nuw %"struct.duckdb_miniz::mz_zip_archive", ptr %9, i32 0, i32 5
  store i32 %8, ptr %10, align 4, !tbaa !236
  br label %11

11:                                               ; preds = %7, %2
  ret i32 0
}

; Function Attrs: alwaysinline mustprogress uwtable
define internal noundef ptr @_ZN12duckdb_minizL14mz_zip_get_cdhEPNS_14mz_zip_archiveEj(ptr noundef %0, i32 noundef %1) #9 {
  %3 = alloca ptr, align 8
  %4 = alloca ptr, align 8
  %5 = alloca i32, align 4
  store ptr %0, ptr %4, align 8, !tbaa !19
  store i32 %1, ptr %5, align 4, !tbaa !10
  %6 = load ptr, ptr %4, align 8, !tbaa !19
  %7 = icmp ne ptr %6, null
  br i1 %7, label %8, label %19

8:                                                ; preds = %2
  %9 = load ptr, ptr %4, align 8, !tbaa !19
  %10 = getelementptr inbounds nuw %"struct.duckdb_miniz::mz_zip_archive", ptr %9, i32 0, i32 15
  %11 = load ptr, ptr %10, align 8, !tbaa !227
  %12 = icmp ne ptr %11, null
  br i1 %12, label %13, label %19

13:                                               ; preds = %8
  %14 = load i32, ptr %5, align 4, !tbaa !10
  %15 = load ptr, ptr %4, align 8, !tbaa !19
  %16 = getelementptr inbounds nuw %"struct.duckdb_miniz::mz_zip_archive", ptr %15, i32 0, i32 2
  %17 = load i32, ptr %16, align 8, !tbaa !245
  %18 = icmp uge i32 %14, %17
  br i1 %18, label %19, label %20

19:                                               ; preds = %13, %8, %2
  store ptr null, ptr %3, align 8
  br label %49

20:                                               ; preds = %13
  %21 = load ptr, ptr %4, align 8, !tbaa !19
  %22 = getelementptr inbounds nuw %"struct.duckdb_miniz::mz_zip_archive", ptr %21, i32 0, i32 15
  %23 = load ptr, ptr %22, align 8, !tbaa !227
  %24 = getelementptr inbounds nuw %"struct.duckdb_miniz::mz_zip_internal_state_tag", ptr %23, i32 0, i32 0
  %25 = getelementptr inbounds nuw %"struct.duckdb_miniz::mz_zip_array", ptr %24, i32 0, i32 0
  %26 = load ptr, ptr %25, align 8, !tbaa !255
  %27 = load ptr, ptr %4, align 8, !tbaa !19
  %28 = getelementptr inbounds nuw %"struct.duckdb_miniz::mz_zip_archive", ptr %27, i32 0, i32 15
  %29 = load ptr, ptr %28, align 8, !tbaa !227
  %30 = getelementptr inbounds nuw %"struct.duckdb_miniz::mz_zip_internal_state_tag", ptr %29, i32 0, i32 0
  %31 = load ptr, ptr %4, align 8, !tbaa !19
  %32 = getelementptr inbounds nuw %"struct.duckdb_miniz::mz_zip_archive", ptr %31, i32 0, i32 15
  %33 = load ptr, ptr %32, align 8, !tbaa !227
  %34 = getelementptr inbounds nuw %"struct.duckdb_miniz::mz_zip_internal_state_tag", ptr %33, i32 0, i32 1
  %35 = getelementptr inbounds nuw %"struct.duckdb_miniz::mz_zip_array", ptr %34, i32 0, i32 0
  %36 = load ptr, ptr %35, align 8, !tbaa !256
  %37 = load ptr, ptr %4, align 8, !tbaa !19
  %38 = getelementptr inbounds nuw %"struct.duckdb_miniz::mz_zip_archive", ptr %37, i32 0, i32 15
  %39 = load ptr, ptr %38, align 8, !tbaa !227
  %40 = getelementptr inbounds nuw %"struct.duckdb_miniz::mz_zip_internal_state_tag", ptr %39, i32 0, i32 1
  %41 = load i32, ptr %5, align 4, !tbaa !10
  %42 = call noundef i32 @_ZN12duckdb_minizL24mz_zip_array_range_checkEPKNS_12mz_zip_arrayEj(ptr noundef %40, i32 noundef %41)
  %43 = zext i32 %42 to i64
  %44 = getelementptr inbounds nuw i32, ptr %36, i64 %43
  %45 = load i32, ptr %44, align 4, !tbaa !10
  %46 = call noundef i32 @_ZN12duckdb_minizL24mz_zip_array_range_checkEPKNS_12mz_zip_arrayEj(ptr noundef %30, i32 noundef %45)
  %47 = zext i32 %46 to i64
  %48 = getelementptr inbounds nuw i8, ptr %26, i64 %47
  store ptr %48, ptr %3, align 8
  br label %49

49:                                               ; preds = %20, %19
  %50 = load ptr, ptr %3, align 8
  ret ptr %50
}

; Function Attrs: mustprogress uwtable
define noundef i32 @_ZN12duckdb_miniz33mz_zip_reader_is_file_a_directoryEPNS_14mz_zip_archiveEj(ptr noundef %0, i32 noundef %1) #5 {
  %3 = alloca i32, align 4
  %4 = alloca ptr, align 8
  %5 = alloca i32, align 4
  %6 = alloca i32, align 4
  %7 = alloca i32, align 4
  %8 = alloca i32, align 4
  %9 = alloca ptr, align 8
  %10 = alloca i32, align 4
  store ptr %0, ptr %4, align 8, !tbaa !19
  store i32 %1, ptr %5, align 4, !tbaa !10
  call void @llvm.lifetime.start.p0(i64 4, ptr %6) #11
  call void @llvm.lifetime.start.p0(i64 4, ptr %7) #11
  call void @llvm.lifetime.start.p0(i64 4, ptr %8) #11
  call void @llvm.lifetime.start.p0(i64 8, ptr %9) #11
  %11 = load ptr, ptr %4, align 8, !tbaa !19
  %12 = load i32, ptr %5, align 4, !tbaa !10
  %13 = call noundef ptr @_ZN12duckdb_minizL14mz_zip_get_cdhEPNS_14mz_zip_archiveEj(ptr noundef %11, i32 noundef %12)
  store ptr %13, ptr %9, align 8, !tbaa !7
  %14 = load ptr, ptr %9, align 8, !tbaa !7
  %15 = icmp ne ptr %14, null
  br i1 %15, label %19, label %16

16:                                               ; preds = %2
  %17 = load ptr, ptr %4, align 8, !tbaa !19
  %18 = call noundef i32 @_ZN12duckdb_minizL16mz_zip_set_errorEPNS_14mz_zip_archiveENS_12mz_zip_errorE(ptr noundef %17, i32 noundef 24)
  store i32 0, ptr %3, align 4
  store i32 1, ptr %10, align 4
  br label %91

19:                                               ; preds = %2
  %20 = load ptr, ptr %9, align 8, !tbaa !7
  %21 = getelementptr inbounds i8, ptr %20, i64 28
  %22 = getelementptr inbounds i8, ptr %21, i64 0
  %23 = load i8, ptr %22, align 1, !tbaa !12
  %24 = zext i8 %23 to i32
  %25 = load ptr, ptr %9, align 8, !tbaa !7
  %26 = getelementptr inbounds i8, ptr %25, i64 28
  %27 = getelementptr inbounds i8, ptr %26, i64 1
  %28 = load i8, ptr %27, align 1, !tbaa !12
  %29 = zext i8 %28 to i32
  %30 = shl i32 %29, 8
  %31 = or i32 %24, %30
  store i32 %31, ptr %6, align 4, !tbaa !10
  %32 = load i32, ptr %6, align 4, !tbaa !10
  %33 = icmp ne i32 %32, 0
  br i1 %33, label %34, label %46

34:                                               ; preds = %19
  %35 = load ptr, ptr %9, align 8, !tbaa !7
  %36 = getelementptr inbounds i8, ptr %35, i64 46
  %37 = load i32, ptr %6, align 4, !tbaa !10
  %38 = zext i32 %37 to i64
  %39 = getelementptr inbounds nuw i8, ptr %36, i64 %38
  %40 = getelementptr inbounds i8, ptr %39, i64 -1
  %41 = load i8, ptr %40, align 1, !tbaa !12
  %42 = zext i8 %41 to i32
  %43 = icmp eq i32 %42, 47
  br i1 %43, label %44, label %45

44:                                               ; preds = %34
  store i32 1, ptr %3, align 4
  store i32 1, ptr %10, align 4
  br label %91

45:                                               ; preds = %34
  br label %46

46:                                               ; preds = %45, %19
  %47 = load ptr, ptr %9, align 8, !tbaa !7
  %48 = getelementptr inbounds i8, ptr %47, i64 4
  %49 = getelementptr inbounds i8, ptr %48, i64 0
  %50 = load i8, ptr %49, align 1, !tbaa !12
  %51 = zext i8 %50 to i32
  %52 = load ptr, ptr %9, align 8, !tbaa !7
  %53 = getelementptr inbounds i8, ptr %52, i64 4
  %54 = getelementptr inbounds i8, ptr %53, i64 1
  %55 = load i8, ptr %54, align 1, !tbaa !12
  %56 = zext i8 %55 to i32
  %57 = shl i32 %56, 8
  %58 = or i32 %51, %57
  %59 = lshr i32 %58, 8
  store i32 %59, ptr %7, align 4, !tbaa !10
  %60 = load ptr, ptr %9, align 8, !tbaa !7
  %61 = getelementptr inbounds i8, ptr %60, i64 38
  %62 = getelementptr inbounds i8, ptr %61, i64 0
  %63 = load i8, ptr %62, align 1, !tbaa !12
  %64 = zext i8 %63 to i32
  %65 = load ptr, ptr %9, align 8, !tbaa !7
  %66 = getelementptr inbounds i8, ptr %65, i64 38
  %67 = getelementptr inbounds i8, ptr %66, i64 1
  %68 = load i8, ptr %67, align 1, !tbaa !12
  %69 = zext i8 %68 to i32
  %70 = shl i32 %69, 8
  %71 = or i32 %64, %70
  %72 = load ptr, ptr %9, align 8, !tbaa !7
  %73 = getelementptr inbounds i8, ptr %72, i64 38
  %74 = getelementptr inbounds i8, ptr %73, i64 2
  %75 = load i8, ptr %74, align 1, !tbaa !12
  %76 = zext i8 %75 to i32
  %77 = shl i32 %76, 16
  %78 = or i32 %71, %77
  %79 = load ptr, ptr %9, align 8, !tbaa !7
  %80 = getelementptr inbounds i8, ptr %79, i64 38
  %81 = getelementptr inbounds i8, ptr %80, i64 3
  %82 = load i8, ptr %81, align 1, !tbaa !12
  %83 = zext i8 %82 to i32
  %84 = shl i32 %83, 24
  %85 = or i32 %78, %84
  store i32 %85, ptr %8, align 4, !tbaa !10
  %86 = load i32, ptr %8, align 4, !tbaa !10
  %87 = and i32 %86, 16
  %88 = icmp ne i32 %87, 0
  br i1 %88, label %89, label %90

89:                                               ; preds = %46
  store i32 1, ptr %3, align 4
  store i32 1, ptr %10, align 4
  br label %91

90:                                               ; preds = %46
  store i32 0, ptr %3, align 4
  store i32 1, ptr %10, align 4
  br label %91

91:                                               ; preds = %90, %89, %44, %16
  call void @llvm.lifetime.end.p0(i64 8, ptr %9) #11
  call void @llvm.lifetime.end.p0(i64 4, ptr %8) #11
  call void @llvm.lifetime.end.p0(i64 4, ptr %7) #11
  call void @llvm.lifetime.end.p0(i64 4, ptr %6) #11
  %92 = load i32, ptr %3, align 4
  ret i32 %92
}